ARM GAS  C:\Users\vanlo\AppData\Local\Temp\ccNExxUs.s 			page 1


   1              		.cpu cortex-m3
   2              		.arch armv7-m
   3              		.fpu softvfp
   4              		.eabi_attribute 20, 1
   5              		.eabi_attribute 21, 1
   6              		.eabi_attribute 23, 3
   7              		.eabi_attribute 24, 1
   8              		.eabi_attribute 25, 1
   9              		.eabi_attribute 26, 1
  10              		.eabi_attribute 30, 1
  11              		.eabi_attribute 34, 1
  12              		.eabi_attribute 18, 4
  13              		.file	"delay.c"
  14              		.text
  15              	.Ltext0:
  16              		.cfi_sections	.debug_frame
  17              		.section	.text.delayus,"ax",%progbits
  18              		.align	1
  19              		.global	delayus
  20              		.syntax unified
  21              		.thumb
  22              		.thumb_func
  24              	delayus:
  25              	.LVL0:
  26              	.LFB0:
  27              		.file 1 "delay/delay.c"
   1:delay/delay.c **** /*
   2:delay/delay.c ****  * delay.c
   3:delay/delay.c ****  *
   4:delay/delay.c ****  *  Created on: Apr 4, 2024
   5:delay/delay.c ****  *      Author: vanlo
   6:delay/delay.c ****  */
   7:delay/delay.c **** 
   8:delay/delay.c **** 
   9:delay/delay.c **** #include "delay.h"
  10:delay/delay.c **** // SysTick_Handler function will be called every 1 us
  11:delay/delay.c **** 
  12:delay/delay.c **** void delayus(uint32_t us) {
  28              		.loc 1 12 27 view -0
  29              		.cfi_startproc
  30              		@ args = 0, pretend = 0, frame = 0
  31              		@ frame_needed = 0, uses_anonymous_args = 0
  32              		@ link register save eliminated.
  13:delay/delay.c **** 	for (uint32_t i = 0; i < us; i++) {
  33              		.loc 1 13 2 view .LVU1
  34              	.LBB2:
  35              		.loc 1 13 7 view .LVU2
  36              		.loc 1 13 16 is_stmt 0 view .LVU3
  37 0000 0022     		movs	r2, #0
  38              		.loc 1 13 2 view .LVU4
  39 0002 04E0     		b	.L2
  40              	.LVL1:
  41              	.L3:
  42              	.LBB3:
  14:delay/delay.c **** 		for (uint32_t j = 0; j < 8; j++) {
  15:delay/delay.c **** 			// Thực hiện một lệnh nop để tạo ra độ trễ
  16:delay/delay.c **** 			__asm("nop");
ARM GAS  C:\Users\vanlo\AppData\Local\Temp\ccNExxUs.s 			page 2


  43              		.loc 1 16 4 is_stmt 1 discriminator 3 view .LVU5
  44              		.syntax unified
  45              	@ 16 "delay/delay.c" 1
  46 0004 00BF     		nop
  47              	@ 0 "" 2
  14:delay/delay.c **** 		for (uint32_t j = 0; j < 8; j++) {
  48              		.loc 1 14 31 discriminator 3 view .LVU6
  14:delay/delay.c **** 		for (uint32_t j = 0; j < 8; j++) {
  49              		.loc 1 14 32 is_stmt 0 discriminator 3 view .LVU7
  50              		.thumb
  51              		.syntax unified
  52 0006 0133     		adds	r3, r3, #1
  53              	.LVL2:
  54              	.L4:
  14:delay/delay.c **** 		for (uint32_t j = 0; j < 8; j++) {
  55              		.loc 1 14 24 is_stmt 1 discriminator 1 view .LVU8
  14:delay/delay.c **** 		for (uint32_t j = 0; j < 8; j++) {
  56              		.loc 1 14 3 is_stmt 0 discriminator 1 view .LVU9
  57 0008 072B     		cmp	r3, #7
  58 000a FBD9     		bls	.L3
  59              	.LBE3:
  13:delay/delay.c **** 	for (uint32_t i = 0; i < us; i++) {
  60              		.loc 1 13 31 is_stmt 1 discriminator 2 view .LVU10
  13:delay/delay.c **** 	for (uint32_t i = 0; i < us; i++) {
  61              		.loc 1 13 32 is_stmt 0 discriminator 2 view .LVU11
  62 000c 0132     		adds	r2, r2, #1
  63              	.LVL3:
  64              	.L2:
  13:delay/delay.c **** 	for (uint32_t i = 0; i < us; i++) {
  65              		.loc 1 13 23 is_stmt 1 discriminator 1 view .LVU12
  13:delay/delay.c **** 	for (uint32_t i = 0; i < us; i++) {
  66              		.loc 1 13 2 is_stmt 0 discriminator 1 view .LVU13
  67 000e 8242     		cmp	r2, r0
  68 0010 01D2     		bcs	.L6
  69              	.LBB4:
  14:delay/delay.c **** 		for (uint32_t j = 0; j < 8; j++) {
  70              		.loc 1 14 17 view .LVU14
  71 0012 0023     		movs	r3, #0
  72 0014 F8E7     		b	.L4
  73              	.L6:
  74              	.LBE4:
  75              	.LBE2:
  17:delay/delay.c **** 		}
  18:delay/delay.c **** 	}
  19:delay/delay.c **** }
  76              		.loc 1 19 1 view .LVU15
  77 0016 7047     		bx	lr
  78              		.cfi_endproc
  79              	.LFE0:
  81              		.section	.text.delayms,"ax",%progbits
  82              		.align	1
  83              		.global	delayms
  84              		.syntax unified
  85              		.thumb
  86              		.thumb_func
  88              	delayms:
  89              	.LVL4:
ARM GAS  C:\Users\vanlo\AppData\Local\Temp\ccNExxUs.s 			page 3


  90              	.LFB1:
  20:delay/delay.c **** 
  21:delay/delay.c **** void delayms(uint32_t ms)
  22:delay/delay.c **** {
  91              		.loc 1 22 1 is_stmt 1 view -0
  92              		.cfi_startproc
  93              		@ args = 0, pretend = 0, frame = 0
  94              		@ frame_needed = 0, uses_anonymous_args = 0
  95              		.loc 1 22 1 is_stmt 0 view .LVU17
  96 0000 10B5     		push	{r4, lr}
  97              	.LCFI0:
  98              		.cfi_def_cfa_offset 8
  99              		.cfi_offset 4, -8
 100              		.cfi_offset 14, -4
  23:delay/delay.c **** 	// Wait until ms reach zero
  24:delay/delay.c **** 	while (ms--)
 101              		.loc 1 24 2 is_stmt 1 view .LVU18
 102              		.loc 1 24 8 is_stmt 0 view .LVU19
 103 0002 04E0     		b	.L8
 104              	.LVL5:
 105              	.L9:
  25:delay/delay.c **** 	{
  26:delay/delay.c **** 		// Delay 1ms
  27:delay/delay.c **** 		delayus(1000);
 106              		.loc 1 27 3 is_stmt 1 view .LVU20
 107 0004 4FF47A70 		mov	r0, #1000
 108 0008 FFF7FEFF 		bl	delayus
 109              	.LVL6:
  24:delay/delay.c **** 	{
 110              		.loc 1 24 11 is_stmt 0 view .LVU21
 111 000c 2046     		mov	r0, r4
 112              	.LVL7:
 113              	.L8:
  24:delay/delay.c **** 	{
 114              		.loc 1 24 8 is_stmt 1 view .LVU22
  24:delay/delay.c **** 	{
 115              		.loc 1 24 11 is_stmt 0 view .LVU23
 116 000e 441E     		subs	r4, r0, #1
 117              	.LVL8:
  24:delay/delay.c **** 	{
 118              		.loc 1 24 8 view .LVU24
 119 0010 0028     		cmp	r0, #0
 120 0012 F7D1     		bne	.L9
  28:delay/delay.c **** 	}
  29:delay/delay.c **** }
 121              		.loc 1 29 1 view .LVU25
 122 0014 10BD     		pop	{r4, pc}
 123              		.loc 1 29 1 view .LVU26
 124              		.cfi_endproc
 125              	.LFE1:
 127              		.text
 128              	.Letext0:
 129              		.file 2 "c:\\st\\stm32cubeide_1.12.1\\stm32cubeide\\plugins\\com.st.stm32cube.ide.mcu.externaltool
 130              		.file 3 "c:\\st\\stm32cubeide_1.12.1\\stm32cubeide\\plugins\\com.st.stm32cube.ide.mcu.externaltool
ARM GAS  C:\Users\vanlo\AppData\Local\Temp\ccNExxUs.s 			page 4


DEFINED SYMBOLS
                            *ABS*:0000000000000000 delay.c
C:\Users\vanlo\AppData\Local\Temp\ccNExxUs.s:18     .text.delayus:0000000000000000 $t
C:\Users\vanlo\AppData\Local\Temp\ccNExxUs.s:24     .text.delayus:0000000000000000 delayus
C:\Users\vanlo\AppData\Local\Temp\ccNExxUs.s:82     .text.delayms:0000000000000000 $t
C:\Users\vanlo\AppData\Local\Temp\ccNExxUs.s:88     .text.delayms:0000000000000000 delayms

NO UNDEFINED SYMBOLS
