ARM GAS  C:\Users\vanlo\AppData\Local\Temp\ccOfYvZP.s 			page 1


   1              		.cpu cortex-m3
   2              		.arch armv7-m
   3              		.fpu softvfp
   4              		.eabi_attribute 20, 1
   5              		.eabi_attribute 21, 1
   6              		.eabi_attribute 23, 3
   7              		.eabi_attribute 24, 1
   8              		.eabi_attribute 25, 1
   9              		.eabi_attribute 26, 1
  10              		.eabi_attribute 30, 1
  11              		.eabi_attribute 34, 1
  12              		.eabi_attribute 18, 4
  13              		.file	"lcd_16x2.c"
  14              		.text
  15              	.Ltext0:
  16              		.cfi_sections	.debug_frame
  17              		.section	.text.LCD_Enable,"ax",%progbits
  18              		.align	1
  19              		.global	LCD_Enable
  20              		.syntax unified
  21              		.thumb
  22              		.thumb_func
  24              	LCD_Enable:
  25              	.LFB66:
  26              		.file 1 "board/lcd_16x2/lcd_16x2.c"
   1:board/lcd_16x2/lcd_16x2.c **** /*
   2:board/lcd_16x2/lcd_16x2.c ****  * lcd_16x2.c
   3:board/lcd_16x2/lcd_16x2.c ****  *
   4:board/lcd_16x2/lcd_16x2.c ****  *  Created on: Apr 3, 2024
   5:board/lcd_16x2/lcd_16x2.c ****  *      Author: vanlo
   6:board/lcd_16x2/lcd_16x2.c ****  */
   7:board/lcd_16x2/lcd_16x2.c **** #include "lcd_16x2.h"
   8:board/lcd_16x2/lcd_16x2.c **** #include "gpio.h"
   9:board/lcd_16x2/lcd_16x2.c **** #include "string.h"
  10:board/lcd_16x2/lcd_16x2.c **** 
  11:board/lcd_16x2/lcd_16x2.c **** #include "stm32_config.h"
  12:board/lcd_16x2/lcd_16x2.c **** #include "delay.h"
  13:board/lcd_16x2/lcd_16x2.c **** 
  14:board/lcd_16x2/lcd_16x2.c **** void LCD_Init()
  15:board/lcd_16x2/lcd_16x2.c **** {
  16:board/lcd_16x2/lcd_16x2.c ****   LCD_Send4Bit(0x00);
  17:board/lcd_16x2/lcd_16x2.c ****   HAL_GPIO_WritePin(GPIOB, LCD_RS_Pin, 0);
  18:board/lcd_16x2/lcd_16x2.c ****   LCD_Send4Bit(0x03);
  19:board/lcd_16x2/lcd_16x2.c ****   LCD_Enable();
  20:board/lcd_16x2/lcd_16x2.c ****   LCD_Enable();
  21:board/lcd_16x2/lcd_16x2.c ****   LCD_Enable();
  22:board/lcd_16x2/lcd_16x2.c ****   LCD_Send4Bit(0x02);
  23:board/lcd_16x2/lcd_16x2.c ****   LCD_Enable();
  24:board/lcd_16x2/lcd_16x2.c ****   LCD_SendCommand(0x28); // giao thuc 4 bit, hien thi 2 hang, ki tu 5x8
  25:board/lcd_16x2/lcd_16x2.c ****   LCD_SendCommand(0x0C); // cho phep hien thi man hinh
  26:board/lcd_16x2/lcd_16x2.c ****   LCD_SendCommand(0x06); // tang ID, khong dich khung hinh
  27:board/lcd_16x2/lcd_16x2.c ****   LCD_SendCommand(0x01); // xoa toan bo khung hinh
  28:board/lcd_16x2/lcd_16x2.c **** }
  29:board/lcd_16x2/lcd_16x2.c **** 
  30:board/lcd_16x2/lcd_16x2.c **** 
  31:board/lcd_16x2/lcd_16x2.c **** void LCD_Enable(void)
  32:board/lcd_16x2/lcd_16x2.c **** {
ARM GAS  C:\Users\vanlo\AppData\Local\Temp\ccOfYvZP.s 			page 2


  27              		.loc 1 32 1 view -0
  28              		.cfi_startproc
  29              		@ args = 0, pretend = 0, frame = 0
  30              		@ frame_needed = 0, uses_anonymous_args = 0
  31 0000 10B5     		push	{r4, lr}
  32              	.LCFI0:
  33              		.cfi_def_cfa_offset 8
  34              		.cfi_offset 4, -8
  35              		.cfi_offset 14, -4
  33:board/lcd_16x2/lcd_16x2.c **** 	HAL_GPIO_WritePin(GPIOB, LCD_EN_Pin, GPIO_PIN_SET);
  36              		.loc 1 33 2 view .LVU1
  37 0002 094C     		ldr	r4, .L3
  38 0004 0122     		movs	r2, #1
  39 0006 0421     		movs	r1, #4
  40 0008 2046     		mov	r0, r4
  41 000a FFF7FEFF 		bl	HAL_GPIO_WritePin
  42              	.LVL0:
  34:board/lcd_16x2/lcd_16x2.c ****     delayms(1);
  43              		.loc 1 34 5 view .LVU2
  44 000e 0120     		movs	r0, #1
  45 0010 FFF7FEFF 		bl	delayms
  46              	.LVL1:
  35:board/lcd_16x2/lcd_16x2.c ****     HAL_GPIO_WritePin(GPIOB, LCD_EN_Pin, GPIO_PIN_RESET);
  47              		.loc 1 35 5 view .LVU3
  48 0014 0022     		movs	r2, #0
  49 0016 0421     		movs	r1, #4
  50 0018 2046     		mov	r0, r4
  51 001a FFF7FEFF 		bl	HAL_GPIO_WritePin
  52              	.LVL2:
  36:board/lcd_16x2/lcd_16x2.c ****     delayms(1);
  53              		.loc 1 36 5 view .LVU4
  54 001e 0120     		movs	r0, #1
  55 0020 FFF7FEFF 		bl	delayms
  56              	.LVL3:
  37:board/lcd_16x2/lcd_16x2.c **** }
  57              		.loc 1 37 1 is_stmt 0 view .LVU5
  58 0024 10BD     		pop	{r4, pc}
  59              	.L4:
  60 0026 00BF     		.align	2
  61              	.L3:
  62 0028 000C0140 		.word	1073810432
  63              		.cfi_endproc
  64              	.LFE66:
  66              		.section	.text.LCD_Send4Bit,"ax",%progbits
  67              		.align	1
  68              		.global	LCD_Send4Bit
  69              		.syntax unified
  70              		.thumb
  71              		.thumb_func
  73              	LCD_Send4Bit:
  74              	.LVL4:
  75              	.LFB67:
  38:board/lcd_16x2/lcd_16x2.c **** 
  39:board/lcd_16x2/lcd_16x2.c **** void LCD_Send4Bit(unsigned char Data)
  40:board/lcd_16x2/lcd_16x2.c **** {
  76              		.loc 1 40 1 is_stmt 1 view -0
  77              		.cfi_startproc
ARM GAS  C:\Users\vanlo\AppData\Local\Temp\ccOfYvZP.s 			page 3


  78              		@ args = 0, pretend = 0, frame = 0
  79              		@ frame_needed = 0, uses_anonymous_args = 0
  80              		.loc 1 40 1 is_stmt 0 view .LVU7
  81 0000 38B5     		push	{r3, r4, r5, lr}
  82              	.LCFI1:
  83              		.cfi_def_cfa_offset 16
  84              		.cfi_offset 3, -16
  85              		.cfi_offset 4, -12
  86              		.cfi_offset 5, -8
  87              		.cfi_offset 14, -4
  88 0002 0446     		mov	r4, r0
  41:board/lcd_16x2/lcd_16x2.c ****   HAL_GPIO_WritePin(GPIOA, LCD_D4_Pin, Data & 0x01);
  89              		.loc 1 41 3 is_stmt 1 view .LVU8
  90 0004 0C4D     		ldr	r5, .L7
  91 0006 00F00102 		and	r2, r0, #1
  92 000a 1021     		movs	r1, #16
  93 000c 2846     		mov	r0, r5
  94              	.LVL5:
  95              		.loc 1 41 3 is_stmt 0 view .LVU9
  96 000e FFF7FEFF 		bl	HAL_GPIO_WritePin
  97              	.LVL6:
  42:board/lcd_16x2/lcd_16x2.c ****   HAL_GPIO_WritePin(GPIOA, LCD_D5_Pin, (Data>>1)&1);
  98              		.loc 1 42 3 is_stmt 1 view .LVU10
  99 0012 C4F34002 		ubfx	r2, r4, #1, #1
 100 0016 2021     		movs	r1, #32
 101 0018 2846     		mov	r0, r5
 102 001a FFF7FEFF 		bl	HAL_GPIO_WritePin
 103              	.LVL7:
  43:board/lcd_16x2/lcd_16x2.c ****   HAL_GPIO_WritePin(GPIOA, LCD_D6_Pin, (Data>>2)&1);
 104              		.loc 1 43 3 view .LVU11
 105 001e C4F38002 		ubfx	r2, r4, #2, #1
 106 0022 4021     		movs	r1, #64
 107 0024 2846     		mov	r0, r5
 108 0026 FFF7FEFF 		bl	HAL_GPIO_WritePin
 109              	.LVL8:
  44:board/lcd_16x2/lcd_16x2.c ****   HAL_GPIO_WritePin(GPIOA, LCD_D7_Pin, (Data>>3)&1);
 110              		.loc 1 44 3 view .LVU12
 111 002a C4F3C002 		ubfx	r2, r4, #3, #1
 112 002e 8021     		movs	r1, #128
 113 0030 2846     		mov	r0, r5
 114 0032 FFF7FEFF 		bl	HAL_GPIO_WritePin
 115              	.LVL9:
  45:board/lcd_16x2/lcd_16x2.c **** }
 116              		.loc 1 45 1 is_stmt 0 view .LVU13
 117 0036 38BD     		pop	{r3, r4, r5, pc}
 118              	.L8:
 119              		.align	2
 120              	.L7:
 121 0038 00080140 		.word	1073809408
 122              		.cfi_endproc
 123              	.LFE67:
 125              		.section	.text.LCD_SendCommand,"ax",%progbits
 126              		.align	1
 127              		.global	LCD_SendCommand
 128              		.syntax unified
 129              		.thumb
 130              		.thumb_func
ARM GAS  C:\Users\vanlo\AppData\Local\Temp\ccOfYvZP.s 			page 4


 132              	LCD_SendCommand:
 133              	.LVL10:
 134              	.LFB68:
  46:board/lcd_16x2/lcd_16x2.c **** 
  47:board/lcd_16x2/lcd_16x2.c **** void LCD_SendCommand(unsigned char command)
  48:board/lcd_16x2/lcd_16x2.c **** {
 135              		.loc 1 48 1 is_stmt 1 view -0
 136              		.cfi_startproc
 137              		@ args = 0, pretend = 0, frame = 0
 138              		@ frame_needed = 0, uses_anonymous_args = 0
 139              		.loc 1 48 1 is_stmt 0 view .LVU15
 140 0000 10B5     		push	{r4, lr}
 141              	.LCFI2:
 142              		.cfi_def_cfa_offset 8
 143              		.cfi_offset 4, -8
 144              		.cfi_offset 14, -4
 145 0002 0446     		mov	r4, r0
  49:board/lcd_16x2/lcd_16x2.c ****   LCD_Send4Bit(command >> 4);
 146              		.loc 1 49 3 is_stmt 1 view .LVU16
 147 0004 0009     		lsrs	r0, r0, #4
 148              	.LVL11:
 149              		.loc 1 49 3 is_stmt 0 view .LVU17
 150 0006 FFF7FEFF 		bl	LCD_Send4Bit
 151              	.LVL12:
  50:board/lcd_16x2/lcd_16x2.c ****   LCD_Enable();
 152              		.loc 1 50 3 is_stmt 1 view .LVU18
 153 000a FFF7FEFF 		bl	LCD_Enable
 154              	.LVL13:
  51:board/lcd_16x2/lcd_16x2.c ****   LCD_Send4Bit(command);
 155              		.loc 1 51 3 view .LVU19
 156 000e 2046     		mov	r0, r4
 157 0010 FFF7FEFF 		bl	LCD_Send4Bit
 158              	.LVL14:
  52:board/lcd_16x2/lcd_16x2.c ****   LCD_Enable();
 159              		.loc 1 52 3 view .LVU20
 160 0014 FFF7FEFF 		bl	LCD_Enable
 161              	.LVL15:
  53:board/lcd_16x2/lcd_16x2.c **** 
  54:board/lcd_16x2/lcd_16x2.c **** }
 162              		.loc 1 54 1 is_stmt 0 view .LVU21
 163 0018 10BD     		pop	{r4, pc}
 164              		.cfi_endproc
 165              	.LFE68:
 167              		.section	.text.LCD_Init,"ax",%progbits
 168              		.align	1
 169              		.global	LCD_Init
 170              		.syntax unified
 171              		.thumb
 172              		.thumb_func
 174              	LCD_Init:
 175              	.LFB65:
  15:board/lcd_16x2/lcd_16x2.c ****   LCD_Send4Bit(0x00);
 176              		.loc 1 15 1 is_stmt 1 view -0
 177              		.cfi_startproc
 178              		@ args = 0, pretend = 0, frame = 0
 179              		@ frame_needed = 0, uses_anonymous_args = 0
 180 0000 08B5     		push	{r3, lr}
ARM GAS  C:\Users\vanlo\AppData\Local\Temp\ccOfYvZP.s 			page 5


 181              	.LCFI3:
 182              		.cfi_def_cfa_offset 8
 183              		.cfi_offset 3, -8
 184              		.cfi_offset 14, -4
  16:board/lcd_16x2/lcd_16x2.c ****   HAL_GPIO_WritePin(GPIOB, LCD_RS_Pin, 0);
 185              		.loc 1 16 3 view .LVU23
 186 0002 0020     		movs	r0, #0
 187 0004 FFF7FEFF 		bl	LCD_Send4Bit
 188              	.LVL16:
  17:board/lcd_16x2/lcd_16x2.c ****   LCD_Send4Bit(0x03);
 189              		.loc 1 17 3 view .LVU24
 190 0008 0022     		movs	r2, #0
 191 000a 0121     		movs	r1, #1
 192 000c 0E48     		ldr	r0, .L13
 193 000e FFF7FEFF 		bl	HAL_GPIO_WritePin
 194              	.LVL17:
  18:board/lcd_16x2/lcd_16x2.c ****   LCD_Enable();
 195              		.loc 1 18 3 view .LVU25
 196 0012 0320     		movs	r0, #3
 197 0014 FFF7FEFF 		bl	LCD_Send4Bit
 198              	.LVL18:
  19:board/lcd_16x2/lcd_16x2.c ****   LCD_Enable();
 199              		.loc 1 19 3 view .LVU26
 200 0018 FFF7FEFF 		bl	LCD_Enable
 201              	.LVL19:
  20:board/lcd_16x2/lcd_16x2.c ****   LCD_Enable();
 202              		.loc 1 20 3 view .LVU27
 203 001c FFF7FEFF 		bl	LCD_Enable
 204              	.LVL20:
  21:board/lcd_16x2/lcd_16x2.c ****   LCD_Send4Bit(0x02);
 205              		.loc 1 21 3 view .LVU28
 206 0020 FFF7FEFF 		bl	LCD_Enable
 207              	.LVL21:
  22:board/lcd_16x2/lcd_16x2.c ****   LCD_Enable();
 208              		.loc 1 22 3 view .LVU29
 209 0024 0220     		movs	r0, #2
 210 0026 FFF7FEFF 		bl	LCD_Send4Bit
 211              	.LVL22:
  23:board/lcd_16x2/lcd_16x2.c ****   LCD_SendCommand(0x28); // giao thuc 4 bit, hien thi 2 hang, ki tu 5x8
 212              		.loc 1 23 3 view .LVU30
 213 002a FFF7FEFF 		bl	LCD_Enable
 214              	.LVL23:
  24:board/lcd_16x2/lcd_16x2.c ****   LCD_SendCommand(0x0C); // cho phep hien thi man hinh
 215              		.loc 1 24 3 view .LVU31
 216 002e 2820     		movs	r0, #40
 217 0030 FFF7FEFF 		bl	LCD_SendCommand
 218              	.LVL24:
  25:board/lcd_16x2/lcd_16x2.c ****   LCD_SendCommand(0x06); // tang ID, khong dich khung hinh
 219              		.loc 1 25 3 view .LVU32
 220 0034 0C20     		movs	r0, #12
 221 0036 FFF7FEFF 		bl	LCD_SendCommand
 222              	.LVL25:
  26:board/lcd_16x2/lcd_16x2.c ****   LCD_SendCommand(0x01); // xoa toan bo khung hinh
 223              		.loc 1 26 3 view .LVU33
 224 003a 0620     		movs	r0, #6
 225 003c FFF7FEFF 		bl	LCD_SendCommand
 226              	.LVL26:
ARM GAS  C:\Users\vanlo\AppData\Local\Temp\ccOfYvZP.s 			page 6


  27:board/lcd_16x2/lcd_16x2.c **** }
 227              		.loc 1 27 3 view .LVU34
 228 0040 0120     		movs	r0, #1
 229 0042 FFF7FEFF 		bl	LCD_SendCommand
 230              	.LVL27:
  28:board/lcd_16x2/lcd_16x2.c **** 
 231              		.loc 1 28 1 is_stmt 0 view .LVU35
 232 0046 08BD     		pop	{r3, pc}
 233              	.L14:
 234              		.align	2
 235              	.L13:
 236 0048 000C0140 		.word	1073810432
 237              		.cfi_endproc
 238              	.LFE65:
 240              		.section	.text.LCD_Clear,"ax",%progbits
 241              		.align	1
 242              		.global	LCD_Clear
 243              		.syntax unified
 244              		.thumb
 245              		.thumb_func
 247              	LCD_Clear:
 248              	.LFB69:
  55:board/lcd_16x2/lcd_16x2.c **** 
  56:board/lcd_16x2/lcd_16x2.c **** void LCD_Clear()
  57:board/lcd_16x2/lcd_16x2.c **** {
 249              		.loc 1 57 1 is_stmt 1 view -0
 250              		.cfi_startproc
 251              		@ args = 0, pretend = 0, frame = 0
 252              		@ frame_needed = 0, uses_anonymous_args = 0
 253 0000 08B5     		push	{r3, lr}
 254              	.LCFI4:
 255              		.cfi_def_cfa_offset 8
 256              		.cfi_offset 3, -8
 257              		.cfi_offset 14, -4
  58:board/lcd_16x2/lcd_16x2.c ****   LCD_SendCommand(0x01);
 258              		.loc 1 58 3 view .LVU37
 259 0002 0120     		movs	r0, #1
 260 0004 FFF7FEFF 		bl	LCD_SendCommand
 261              	.LVL28:
  59:board/lcd_16x2/lcd_16x2.c ****   delayus(10);
 262              		.loc 1 59 3 view .LVU38
 263 0008 0A20     		movs	r0, #10
 264 000a FFF7FEFF 		bl	delayus
 265              	.LVL29:
  60:board/lcd_16x2/lcd_16x2.c **** }
 266              		.loc 1 60 1 is_stmt 0 view .LVU39
 267 000e 08BD     		pop	{r3, pc}
 268              		.cfi_endproc
 269              	.LFE69:
 271              		.section	.text.LCD_Gotoxy,"ax",%progbits
 272              		.align	1
 273              		.global	LCD_Gotoxy
 274              		.syntax unified
 275              		.thumb
 276              		.thumb_func
 278              	LCD_Gotoxy:
 279              	.LVL30:
ARM GAS  C:\Users\vanlo\AppData\Local\Temp\ccOfYvZP.s 			page 7


 280              	.LFB70:
  61:board/lcd_16x2/lcd_16x2.c **** void LCD_Gotoxy(unsigned char x, unsigned char y) {
 281              		.loc 1 61 51 is_stmt 1 view -0
 282              		.cfi_startproc
 283              		@ args = 0, pretend = 0, frame = 0
 284              		@ frame_needed = 0, uses_anonymous_args = 0
 285              		.loc 1 61 51 is_stmt 0 view .LVU41
 286 0000 08B5     		push	{r3, lr}
 287              	.LCFI5:
 288              		.cfi_def_cfa_offset 8
 289              		.cfi_offset 3, -8
 290              		.cfi_offset 14, -4
  62:board/lcd_16x2/lcd_16x2.c **** 
  63:board/lcd_16x2/lcd_16x2.c **** 	if (y == 0)
 291              		.loc 1 63 2 is_stmt 1 view .LVU42
 292              		.loc 1 63 5 is_stmt 0 view .LVU43
 293 0002 11B1     		cbz	r1, .L21
  64:board/lcd_16x2/lcd_16x2.c **** 		LCD_SendCommand(SET_DDRAM_ADDRESS_LINE_1 + x);
  65:board/lcd_16x2/lcd_16x2.c **** 	else if (y == 1)
 294              		.loc 1 65 7 is_stmt 1 view .LVU44
 295              		.loc 1 65 10 is_stmt 0 view .LVU45
 296 0004 0129     		cmp	r1, #1
 297 0006 05D0     		beq	.L22
 298              	.LVL31:
 299              	.L17:
  66:board/lcd_16x2/lcd_16x2.c **** 		LCD_SendCommand(SET_DDRAM_ADDRESS_LINE_2 + x);
  67:board/lcd_16x2/lcd_16x2.c **** }
 300              		.loc 1 67 1 view .LVU46
 301 0008 08BD     		pop	{r3, pc}
 302              	.LVL32:
 303              	.L21:
  64:board/lcd_16x2/lcd_16x2.c **** 		LCD_SendCommand(SET_DDRAM_ADDRESS_LINE_1 + x);
 304              		.loc 1 64 3 is_stmt 1 view .LVU47
 305 000a 80F08000 		eor	r0, r0, #128
 306              	.LVL33:
  64:board/lcd_16x2/lcd_16x2.c **** 		LCD_SendCommand(SET_DDRAM_ADDRESS_LINE_1 + x);
 307              		.loc 1 64 3 is_stmt 0 view .LVU48
 308 000e FFF7FEFF 		bl	LCD_SendCommand
 309              	.LVL34:
  64:board/lcd_16x2/lcd_16x2.c **** 		LCD_SendCommand(SET_DDRAM_ADDRESS_LINE_1 + x);
 310              		.loc 1 64 3 view .LVU49
 311 0012 F9E7     		b	.L17
 312              	.LVL35:
 313              	.L22:
  66:board/lcd_16x2/lcd_16x2.c **** 		LCD_SendCommand(SET_DDRAM_ADDRESS_LINE_2 + x);
 314              		.loc 1 66 3 is_stmt 1 view .LVU50
 315 0014 4038     		subs	r0, r0, #64
 316              	.LVL36:
  66:board/lcd_16x2/lcd_16x2.c **** 		LCD_SendCommand(SET_DDRAM_ADDRESS_LINE_2 + x);
 317              		.loc 1 66 3 is_stmt 0 view .LVU51
 318 0016 C0B2     		uxtb	r0, r0
 319 0018 FFF7FEFF 		bl	LCD_SendCommand
 320              	.LVL37:
 321              		.loc 1 67 1 view .LVU52
 322 001c F4E7     		b	.L17
 323              		.cfi_endproc
 324              	.LFE70:
ARM GAS  C:\Users\vanlo\AppData\Local\Temp\ccOfYvZP.s 			page 8


 326              		.section	.text.LCD_PutChar,"ax",%progbits
 327              		.align	1
 328              		.global	LCD_PutChar
 329              		.syntax unified
 330              		.thumb
 331              		.thumb_func
 333              	LCD_PutChar:
 334              	.LVL38:
 335              	.LFB71:
  68:board/lcd_16x2/lcd_16x2.c **** 
  69:board/lcd_16x2/lcd_16x2.c **** void LCD_PutChar(unsigned char Data) {
 336              		.loc 1 69 38 is_stmt 1 view -0
 337              		.cfi_startproc
 338              		@ args = 0, pretend = 0, frame = 0
 339              		@ frame_needed = 0, uses_anonymous_args = 0
 340              		.loc 1 69 38 is_stmt 0 view .LVU54
 341 0000 38B5     		push	{r3, r4, r5, lr}
 342              	.LCFI6:
 343              		.cfi_def_cfa_offset 16
 344              		.cfi_offset 3, -16
 345              		.cfi_offset 4, -12
 346              		.cfi_offset 5, -8
 347              		.cfi_offset 14, -4
 348 0002 0446     		mov	r4, r0
  70:board/lcd_16x2/lcd_16x2.c **** 
  71:board/lcd_16x2/lcd_16x2.c **** 	HAL_GPIO_WritePin(GPIOB, LCD_RS_Pin,GPIO_PIN_SET);
 349              		.loc 1 71 2 is_stmt 1 view .LVU55
 350 0004 074D     		ldr	r5, .L25
 351 0006 0122     		movs	r2, #1
 352 0008 1146     		mov	r1, r2
 353 000a 2846     		mov	r0, r5
 354              	.LVL39:
 355              		.loc 1 71 2 is_stmt 0 view .LVU56
 356 000c FFF7FEFF 		bl	HAL_GPIO_WritePin
 357              	.LVL40:
  72:board/lcd_16x2/lcd_16x2.c **** 	LCD_SendCommand(Data);
 358              		.loc 1 72 2 is_stmt 1 view .LVU57
 359 0010 2046     		mov	r0, r4
 360 0012 FFF7FEFF 		bl	LCD_SendCommand
 361              	.LVL41:
  73:board/lcd_16x2/lcd_16x2.c **** 	HAL_GPIO_WritePin(GPIOB, LCD_RS_Pin, GPIO_PIN_RESET);
 362              		.loc 1 73 2 view .LVU58
 363 0016 0022     		movs	r2, #0
 364 0018 0121     		movs	r1, #1
 365 001a 2846     		mov	r0, r5
 366 001c FFF7FEFF 		bl	HAL_GPIO_WritePin
 367              	.LVL42:
  74:board/lcd_16x2/lcd_16x2.c **** }
 368              		.loc 1 74 1 is_stmt 0 view .LVU59
 369 0020 38BD     		pop	{r3, r4, r5, pc}
 370              	.L26:
 371 0022 00BF     		.align	2
 372              	.L25:
 373 0024 000C0140 		.word	1073810432
 374              		.cfi_endproc
 375              	.LFE71:
 377              		.section	.text.LCD_Puts,"ax",%progbits
ARM GAS  C:\Users\vanlo\AppData\Local\Temp\ccOfYvZP.s 			page 9


 378              		.align	1
 379              		.global	LCD_Puts
 380              		.syntax unified
 381              		.thumb
 382              		.thumb_func
 384              	LCD_Puts:
 385              	.LVL43:
 386              	.LFB72:
  75:board/lcd_16x2/lcd_16x2.c **** 
  76:board/lcd_16x2/lcd_16x2.c **** void LCD_Puts(char *s)
  77:board/lcd_16x2/lcd_16x2.c **** {
 387              		.loc 1 77 1 is_stmt 1 view -0
 388              		.cfi_startproc
 389              		@ args = 0, pretend = 0, frame = 0
 390              		@ frame_needed = 0, uses_anonymous_args = 0
 391              		.loc 1 77 1 is_stmt 0 view .LVU61
 392 0000 10B5     		push	{r4, lr}
 393              	.LCFI7:
 394              		.cfi_def_cfa_offset 8
 395              		.cfi_offset 4, -8
 396              		.cfi_offset 14, -4
 397 0002 0446     		mov	r4, r0
  78:board/lcd_16x2/lcd_16x2.c ****   while (*s)
 398              		.loc 1 78 3 is_stmt 1 view .LVU62
 399              		.loc 1 78 9 is_stmt 0 view .LVU63
 400 0004 02E0     		b	.L28
 401              	.LVL44:
 402              	.L29:
  79:board/lcd_16x2/lcd_16x2.c ****   {
  80:board/lcd_16x2/lcd_16x2.c ****     LCD_PutChar(*s);
 403              		.loc 1 80 5 is_stmt 1 view .LVU64
 404 0006 FFF7FEFF 		bl	LCD_PutChar
 405              	.LVL45:
  81:board/lcd_16x2/lcd_16x2.c ****     s++;
 406              		.loc 1 81 5 view .LVU65
 407              		.loc 1 81 6 is_stmt 0 view .LVU66
 408 000a 0134     		adds	r4, r4, #1
 409              	.LVL46:
 410              	.L28:
  78:board/lcd_16x2/lcd_16x2.c ****   while (*s)
 411              		.loc 1 78 9 is_stmt 1 view .LVU67
  78:board/lcd_16x2/lcd_16x2.c ****   while (*s)
 412              		.loc 1 78 10 is_stmt 0 view .LVU68
 413 000c 2078     		ldrb	r0, [r4]	@ zero_extendqisi2
  78:board/lcd_16x2/lcd_16x2.c ****   while (*s)
 414              		.loc 1 78 9 view .LVU69
 415 000e 0028     		cmp	r0, #0
 416 0010 F9D1     		bne	.L29
  82:board/lcd_16x2/lcd_16x2.c ****   }
  83:board/lcd_16x2/lcd_16x2.c **** }
 417              		.loc 1 83 1 view .LVU70
 418 0012 10BD     		pop	{r4, pc}
 419              		.loc 1 83 1 view .LVU71
 420              		.cfi_endproc
 421              	.LFE72:
 423              		.text
 424              	.Letext0:
ARM GAS  C:\Users\vanlo\AppData\Local\Temp\ccOfYvZP.s 			page 10


 425              		.file 2 "c:\\st\\stm32cubeide_1.12.1\\stm32cubeide\\plugins\\com.st.stm32cube.ide.mcu.externaltool
 426              		.file 3 "c:\\st\\stm32cubeide_1.12.1\\stm32cubeide\\plugins\\com.st.stm32cube.ide.mcu.externaltool
 427              		.file 4 "board/stm32f103cbtx_board/Drivers/CMSIS/Device/ST/STM32F1xx/Include/stm32f103xb.h"
 428              		.file 5 "board/stm32f103cbtx_board/Drivers/STM32F1xx_HAL_Driver/Inc/stm32f1xx_hal_gpio.h"
 429              		.file 6 "delay/delay.h"
ARM GAS  C:\Users\vanlo\AppData\Local\Temp\ccOfYvZP.s 			page 11

