ARM GAS  C:\Users\vanlo\AppData\Local\Temp\cc0RVx9F.s 			page 1


   1              		.cpu cortex-m3
   2              		.arch armv7-m
   3              		.fpu softvfp
   4              		.eabi_attribute 20, 1
   5              		.eabi_attribute 21, 1
   6              		.eabi_attribute 23, 3
   7              		.eabi_attribute 24, 1
   8              		.eabi_attribute 25, 1
   9              		.eabi_attribute 26, 1
  10              		.eabi_attribute 30, 1
  11              		.eabi_attribute 34, 1
  12              		.eabi_attribute 18, 4
  13              		.file	"stm32_config.c"
  14              		.text
  15              	.Ltext0:
  16              		.cfi_sections	.debug_frame
  17              		.section	.text.Error_Handler,"ax",%progbits
  18              		.align	1
  19              		.global	Error_Handler
  20              		.syntax unified
  21              		.thumb
  22              		.thumb_func
  24              	Error_Handler:
  25              	.LFB66:
  26              		.file 1 "board/stm32f103cbtx_board/Core/Extension/stm32_config.c"
   1:board/stm32f103cbtx_board/Core/Extension/stm32_config.c **** /*
   2:board/stm32f103cbtx_board/Core/Extension/stm32_config.c ****  * board_config.c
   3:board/stm32f103cbtx_board/Core/Extension/stm32_config.c ****  *
   4:board/stm32f103cbtx_board/Core/Extension/stm32_config.c ****  *  Created on: Apr 2, 2024
   5:board/stm32f103cbtx_board/Core/Extension/stm32_config.c ****  *      Author: vanlo
   6:board/stm32f103cbtx_board/Core/Extension/stm32_config.c ****  */
   7:board/stm32f103cbtx_board/Core/Extension/stm32_config.c **** #include "stm32_config.h"
   8:board/stm32f103cbtx_board/Core/Extension/stm32_config.c **** 
   9:board/stm32f103cbtx_board/Core/Extension/stm32_config.c **** void SystemClock_Config(void)
  10:board/stm32f103cbtx_board/Core/Extension/stm32_config.c **** {
  11:board/stm32f103cbtx_board/Core/Extension/stm32_config.c ****   RCC_OscInitTypeDef RCC_OscInitStruct = {0};
  12:board/stm32f103cbtx_board/Core/Extension/stm32_config.c ****   RCC_ClkInitTypeDef RCC_ClkInitStruct = {0};
  13:board/stm32f103cbtx_board/Core/Extension/stm32_config.c **** 
  14:board/stm32f103cbtx_board/Core/Extension/stm32_config.c ****   /** Initializes the RCC Oscillators according to the specified parameters
  15:board/stm32f103cbtx_board/Core/Extension/stm32_config.c ****   * in the RCC_OscInitTypeDef structure.
  16:board/stm32f103cbtx_board/Core/Extension/stm32_config.c ****   */
  17:board/stm32f103cbtx_board/Core/Extension/stm32_config.c ****   RCC_OscInitStruct.OscillatorType = RCC_OSCILLATORTYPE_HSI;
  18:board/stm32f103cbtx_board/Core/Extension/stm32_config.c ****   RCC_OscInitStruct.HSIState = RCC_HSI_ON;
  19:board/stm32f103cbtx_board/Core/Extension/stm32_config.c ****   RCC_OscInitStruct.HSICalibrationValue = RCC_HSICALIBRATION_DEFAULT;
  20:board/stm32f103cbtx_board/Core/Extension/stm32_config.c ****   RCC_OscInitStruct.PLL.PLLState = RCC_PLL_NONE;
  21:board/stm32f103cbtx_board/Core/Extension/stm32_config.c ****   if (HAL_RCC_OscConfig(&RCC_OscInitStruct) != HAL_OK)
  22:board/stm32f103cbtx_board/Core/Extension/stm32_config.c ****   {
  23:board/stm32f103cbtx_board/Core/Extension/stm32_config.c ****     Error_Handler();
  24:board/stm32f103cbtx_board/Core/Extension/stm32_config.c ****   }
  25:board/stm32f103cbtx_board/Core/Extension/stm32_config.c **** 
  26:board/stm32f103cbtx_board/Core/Extension/stm32_config.c ****   /** Initializes the CPU, AHB and APB buses clocks
  27:board/stm32f103cbtx_board/Core/Extension/stm32_config.c ****   */
  28:board/stm32f103cbtx_board/Core/Extension/stm32_config.c ****   RCC_ClkInitStruct.ClockType = RCC_CLOCKTYPE_HCLK|RCC_CLOCKTYPE_SYSCLK
  29:board/stm32f103cbtx_board/Core/Extension/stm32_config.c ****                               |RCC_CLOCKTYPE_PCLK1|RCC_CLOCKTYPE_PCLK2;
  30:board/stm32f103cbtx_board/Core/Extension/stm32_config.c ****   RCC_ClkInitStruct.SYSCLKSource = RCC_SYSCLKSOURCE_HSI;
  31:board/stm32f103cbtx_board/Core/Extension/stm32_config.c ****   RCC_ClkInitStruct.AHBCLKDivider = RCC_SYSCLK_DIV1;
  32:board/stm32f103cbtx_board/Core/Extension/stm32_config.c ****   RCC_ClkInitStruct.APB1CLKDivider = RCC_HCLK_DIV1;
ARM GAS  C:\Users\vanlo\AppData\Local\Temp\cc0RVx9F.s 			page 2


  33:board/stm32f103cbtx_board/Core/Extension/stm32_config.c ****   RCC_ClkInitStruct.APB2CLKDivider = RCC_HCLK_DIV1;
  34:board/stm32f103cbtx_board/Core/Extension/stm32_config.c **** 
  35:board/stm32f103cbtx_board/Core/Extension/stm32_config.c ****   if (HAL_RCC_ClockConfig(&RCC_ClkInitStruct, FLASH_LATENCY_0) != HAL_OK)
  36:board/stm32f103cbtx_board/Core/Extension/stm32_config.c ****   {
  37:board/stm32f103cbtx_board/Core/Extension/stm32_config.c ****     Error_Handler();
  38:board/stm32f103cbtx_board/Core/Extension/stm32_config.c ****   }
  39:board/stm32f103cbtx_board/Core/Extension/stm32_config.c **** }
  40:board/stm32f103cbtx_board/Core/Extension/stm32_config.c **** 
  41:board/stm32f103cbtx_board/Core/Extension/stm32_config.c **** void Error_Handler(void)
  42:board/stm32f103cbtx_board/Core/Extension/stm32_config.c **** {
  27              		.loc 1 42 1 view -0
  28              		.cfi_startproc
  29              		@ Volatile: function does not return.
  30              		@ args = 0, pretend = 0, frame = 0
  31              		@ frame_needed = 0, uses_anonymous_args = 0
  32              		@ link register save eliminated.
  43:board/stm32f103cbtx_board/Core/Extension/stm32_config.c ****   /* USER CODE BEGIN Error_Handler_Debug */
  44:board/stm32f103cbtx_board/Core/Extension/stm32_config.c ****   /* User can add his own implementation to report the HAL error return state */
  45:board/stm32f103cbtx_board/Core/Extension/stm32_config.c ****   __disable_irq();
  33              		.loc 1 45 3 view .LVU1
  34              	.LBB4:
  35              	.LBI4:
  36              		.file 2 "board/stm32f103cbtx_board/Drivers/CMSIS/Include/cmsis_gcc.h"
   1:board/stm32f103cbtx_board/Drivers/CMSIS/Include/cmsis_gcc.h **** /**************************************************************************//**
   2:board/stm32f103cbtx_board/Drivers/CMSIS/Include/cmsis_gcc.h ****  * @file     cmsis_gcc.h
   3:board/stm32f103cbtx_board/Drivers/CMSIS/Include/cmsis_gcc.h ****  * @brief    CMSIS compiler GCC header file
   4:board/stm32f103cbtx_board/Drivers/CMSIS/Include/cmsis_gcc.h ****  * @version  V5.0.4
   5:board/stm32f103cbtx_board/Drivers/CMSIS/Include/cmsis_gcc.h ****  * @date     09. April 2018
   6:board/stm32f103cbtx_board/Drivers/CMSIS/Include/cmsis_gcc.h ****  ******************************************************************************/
   7:board/stm32f103cbtx_board/Drivers/CMSIS/Include/cmsis_gcc.h **** /*
   8:board/stm32f103cbtx_board/Drivers/CMSIS/Include/cmsis_gcc.h ****  * Copyright (c) 2009-2018 Arm Limited. All rights reserved.
   9:board/stm32f103cbtx_board/Drivers/CMSIS/Include/cmsis_gcc.h ****  *
  10:board/stm32f103cbtx_board/Drivers/CMSIS/Include/cmsis_gcc.h ****  * SPDX-License-Identifier: Apache-2.0
  11:board/stm32f103cbtx_board/Drivers/CMSIS/Include/cmsis_gcc.h ****  *
  12:board/stm32f103cbtx_board/Drivers/CMSIS/Include/cmsis_gcc.h ****  * Licensed under the Apache License, Version 2.0 (the License); you may
  13:board/stm32f103cbtx_board/Drivers/CMSIS/Include/cmsis_gcc.h ****  * not use this file except in compliance with the License.
  14:board/stm32f103cbtx_board/Drivers/CMSIS/Include/cmsis_gcc.h ****  * You may obtain a copy of the License at
  15:board/stm32f103cbtx_board/Drivers/CMSIS/Include/cmsis_gcc.h ****  *
  16:board/stm32f103cbtx_board/Drivers/CMSIS/Include/cmsis_gcc.h ****  * www.apache.org/licenses/LICENSE-2.0
  17:board/stm32f103cbtx_board/Drivers/CMSIS/Include/cmsis_gcc.h ****  *
  18:board/stm32f103cbtx_board/Drivers/CMSIS/Include/cmsis_gcc.h ****  * Unless required by applicable law or agreed to in writing, software
  19:board/stm32f103cbtx_board/Drivers/CMSIS/Include/cmsis_gcc.h ****  * distributed under the License is distributed on an AS IS BASIS, WITHOUT
  20:board/stm32f103cbtx_board/Drivers/CMSIS/Include/cmsis_gcc.h ****  * WARRANTIES OR CONDITIONS OF ANY KIND, either express or implied.
  21:board/stm32f103cbtx_board/Drivers/CMSIS/Include/cmsis_gcc.h ****  * See the License for the specific language governing permissions and
  22:board/stm32f103cbtx_board/Drivers/CMSIS/Include/cmsis_gcc.h ****  * limitations under the License.
  23:board/stm32f103cbtx_board/Drivers/CMSIS/Include/cmsis_gcc.h ****  */
  24:board/stm32f103cbtx_board/Drivers/CMSIS/Include/cmsis_gcc.h **** 
  25:board/stm32f103cbtx_board/Drivers/CMSIS/Include/cmsis_gcc.h **** #ifndef __CMSIS_GCC_H
  26:board/stm32f103cbtx_board/Drivers/CMSIS/Include/cmsis_gcc.h **** #define __CMSIS_GCC_H
  27:board/stm32f103cbtx_board/Drivers/CMSIS/Include/cmsis_gcc.h **** 
  28:board/stm32f103cbtx_board/Drivers/CMSIS/Include/cmsis_gcc.h **** /* ignore some GCC warnings */
  29:board/stm32f103cbtx_board/Drivers/CMSIS/Include/cmsis_gcc.h **** #pragma GCC diagnostic push
  30:board/stm32f103cbtx_board/Drivers/CMSIS/Include/cmsis_gcc.h **** #pragma GCC diagnostic ignored "-Wsign-conversion"
  31:board/stm32f103cbtx_board/Drivers/CMSIS/Include/cmsis_gcc.h **** #pragma GCC diagnostic ignored "-Wconversion"
  32:board/stm32f103cbtx_board/Drivers/CMSIS/Include/cmsis_gcc.h **** #pragma GCC diagnostic ignored "-Wunused-parameter"
  33:board/stm32f103cbtx_board/Drivers/CMSIS/Include/cmsis_gcc.h **** 
  34:board/stm32f103cbtx_board/Drivers/CMSIS/Include/cmsis_gcc.h **** /* Fallback for __has_builtin */
ARM GAS  C:\Users\vanlo\AppData\Local\Temp\cc0RVx9F.s 			page 3


  35:board/stm32f103cbtx_board/Drivers/CMSIS/Include/cmsis_gcc.h **** #ifndef __has_builtin
  36:board/stm32f103cbtx_board/Drivers/CMSIS/Include/cmsis_gcc.h ****   #define __has_builtin(x) (0)
  37:board/stm32f103cbtx_board/Drivers/CMSIS/Include/cmsis_gcc.h **** #endif
  38:board/stm32f103cbtx_board/Drivers/CMSIS/Include/cmsis_gcc.h **** 
  39:board/stm32f103cbtx_board/Drivers/CMSIS/Include/cmsis_gcc.h **** /* CMSIS compiler specific defines */
  40:board/stm32f103cbtx_board/Drivers/CMSIS/Include/cmsis_gcc.h **** #ifndef   __ASM
  41:board/stm32f103cbtx_board/Drivers/CMSIS/Include/cmsis_gcc.h ****   #define __ASM                                  __asm
  42:board/stm32f103cbtx_board/Drivers/CMSIS/Include/cmsis_gcc.h **** #endif
  43:board/stm32f103cbtx_board/Drivers/CMSIS/Include/cmsis_gcc.h **** #ifndef   __INLINE
  44:board/stm32f103cbtx_board/Drivers/CMSIS/Include/cmsis_gcc.h ****   #define __INLINE                               inline
  45:board/stm32f103cbtx_board/Drivers/CMSIS/Include/cmsis_gcc.h **** #endif
  46:board/stm32f103cbtx_board/Drivers/CMSIS/Include/cmsis_gcc.h **** #ifndef   __STATIC_INLINE
  47:board/stm32f103cbtx_board/Drivers/CMSIS/Include/cmsis_gcc.h ****   #define __STATIC_INLINE                        static inline
  48:board/stm32f103cbtx_board/Drivers/CMSIS/Include/cmsis_gcc.h **** #endif
  49:board/stm32f103cbtx_board/Drivers/CMSIS/Include/cmsis_gcc.h **** #ifndef   __STATIC_FORCEINLINE                 
  50:board/stm32f103cbtx_board/Drivers/CMSIS/Include/cmsis_gcc.h ****   #define __STATIC_FORCEINLINE                   __attribute__((always_inline)) static inline
  51:board/stm32f103cbtx_board/Drivers/CMSIS/Include/cmsis_gcc.h **** #endif                                           
  52:board/stm32f103cbtx_board/Drivers/CMSIS/Include/cmsis_gcc.h **** #ifndef   __NO_RETURN
  53:board/stm32f103cbtx_board/Drivers/CMSIS/Include/cmsis_gcc.h ****   #define __NO_RETURN                            __attribute__((__noreturn__))
  54:board/stm32f103cbtx_board/Drivers/CMSIS/Include/cmsis_gcc.h **** #endif
  55:board/stm32f103cbtx_board/Drivers/CMSIS/Include/cmsis_gcc.h **** #ifndef   __USED
  56:board/stm32f103cbtx_board/Drivers/CMSIS/Include/cmsis_gcc.h ****   #define __USED                                 __attribute__((used))
  57:board/stm32f103cbtx_board/Drivers/CMSIS/Include/cmsis_gcc.h **** #endif
  58:board/stm32f103cbtx_board/Drivers/CMSIS/Include/cmsis_gcc.h **** #ifndef   __WEAK
  59:board/stm32f103cbtx_board/Drivers/CMSIS/Include/cmsis_gcc.h ****   #define __WEAK                                 __attribute__((weak))
  60:board/stm32f103cbtx_board/Drivers/CMSIS/Include/cmsis_gcc.h **** #endif
  61:board/stm32f103cbtx_board/Drivers/CMSIS/Include/cmsis_gcc.h **** #ifndef   __PACKED
  62:board/stm32f103cbtx_board/Drivers/CMSIS/Include/cmsis_gcc.h ****   #define __PACKED                               __attribute__((packed, aligned(1)))
  63:board/stm32f103cbtx_board/Drivers/CMSIS/Include/cmsis_gcc.h **** #endif
  64:board/stm32f103cbtx_board/Drivers/CMSIS/Include/cmsis_gcc.h **** #ifndef   __PACKED_STRUCT
  65:board/stm32f103cbtx_board/Drivers/CMSIS/Include/cmsis_gcc.h ****   #define __PACKED_STRUCT                        struct __attribute__((packed, aligned(1)))
  66:board/stm32f103cbtx_board/Drivers/CMSIS/Include/cmsis_gcc.h **** #endif
  67:board/stm32f103cbtx_board/Drivers/CMSIS/Include/cmsis_gcc.h **** #ifndef   __PACKED_UNION
  68:board/stm32f103cbtx_board/Drivers/CMSIS/Include/cmsis_gcc.h ****   #define __PACKED_UNION                         union __attribute__((packed, aligned(1)))
  69:board/stm32f103cbtx_board/Drivers/CMSIS/Include/cmsis_gcc.h **** #endif
  70:board/stm32f103cbtx_board/Drivers/CMSIS/Include/cmsis_gcc.h **** #ifndef   __UNALIGNED_UINT32        /* deprecated */
  71:board/stm32f103cbtx_board/Drivers/CMSIS/Include/cmsis_gcc.h ****   #pragma GCC diagnostic push
  72:board/stm32f103cbtx_board/Drivers/CMSIS/Include/cmsis_gcc.h ****   #pragma GCC diagnostic ignored "-Wpacked"
  73:board/stm32f103cbtx_board/Drivers/CMSIS/Include/cmsis_gcc.h ****   #pragma GCC diagnostic ignored "-Wattributes"
  74:board/stm32f103cbtx_board/Drivers/CMSIS/Include/cmsis_gcc.h ****   struct __attribute__((packed)) T_UINT32 { uint32_t v; };
  75:board/stm32f103cbtx_board/Drivers/CMSIS/Include/cmsis_gcc.h ****   #pragma GCC diagnostic pop
  76:board/stm32f103cbtx_board/Drivers/CMSIS/Include/cmsis_gcc.h ****   #define __UNALIGNED_UINT32(x)                  (((struct T_UINT32 *)(x))->v)
  77:board/stm32f103cbtx_board/Drivers/CMSIS/Include/cmsis_gcc.h **** #endif
  78:board/stm32f103cbtx_board/Drivers/CMSIS/Include/cmsis_gcc.h **** #ifndef   __UNALIGNED_UINT16_WRITE
  79:board/stm32f103cbtx_board/Drivers/CMSIS/Include/cmsis_gcc.h ****   #pragma GCC diagnostic push
  80:board/stm32f103cbtx_board/Drivers/CMSIS/Include/cmsis_gcc.h ****   #pragma GCC diagnostic ignored "-Wpacked"
  81:board/stm32f103cbtx_board/Drivers/CMSIS/Include/cmsis_gcc.h ****   #pragma GCC diagnostic ignored "-Wattributes"
  82:board/stm32f103cbtx_board/Drivers/CMSIS/Include/cmsis_gcc.h ****   __PACKED_STRUCT T_UINT16_WRITE { uint16_t v; };
  83:board/stm32f103cbtx_board/Drivers/CMSIS/Include/cmsis_gcc.h ****   #pragma GCC diagnostic pop
  84:board/stm32f103cbtx_board/Drivers/CMSIS/Include/cmsis_gcc.h ****   #define __UNALIGNED_UINT16_WRITE(addr, val)    (void)((((struct T_UINT16_WRITE *)(void *)(addr))-
  85:board/stm32f103cbtx_board/Drivers/CMSIS/Include/cmsis_gcc.h **** #endif
  86:board/stm32f103cbtx_board/Drivers/CMSIS/Include/cmsis_gcc.h **** #ifndef   __UNALIGNED_UINT16_READ
  87:board/stm32f103cbtx_board/Drivers/CMSIS/Include/cmsis_gcc.h ****   #pragma GCC diagnostic push
  88:board/stm32f103cbtx_board/Drivers/CMSIS/Include/cmsis_gcc.h ****   #pragma GCC diagnostic ignored "-Wpacked"
  89:board/stm32f103cbtx_board/Drivers/CMSIS/Include/cmsis_gcc.h ****   #pragma GCC diagnostic ignored "-Wattributes"
  90:board/stm32f103cbtx_board/Drivers/CMSIS/Include/cmsis_gcc.h ****   __PACKED_STRUCT T_UINT16_READ { uint16_t v; };
  91:board/stm32f103cbtx_board/Drivers/CMSIS/Include/cmsis_gcc.h ****   #pragma GCC diagnostic pop
ARM GAS  C:\Users\vanlo\AppData\Local\Temp\cc0RVx9F.s 			page 4


  92:board/stm32f103cbtx_board/Drivers/CMSIS/Include/cmsis_gcc.h ****   #define __UNALIGNED_UINT16_READ(addr)          (((const struct T_UINT16_READ *)(const void *)(add
  93:board/stm32f103cbtx_board/Drivers/CMSIS/Include/cmsis_gcc.h **** #endif
  94:board/stm32f103cbtx_board/Drivers/CMSIS/Include/cmsis_gcc.h **** #ifndef   __UNALIGNED_UINT32_WRITE
  95:board/stm32f103cbtx_board/Drivers/CMSIS/Include/cmsis_gcc.h ****   #pragma GCC diagnostic push
  96:board/stm32f103cbtx_board/Drivers/CMSIS/Include/cmsis_gcc.h ****   #pragma GCC diagnostic ignored "-Wpacked"
  97:board/stm32f103cbtx_board/Drivers/CMSIS/Include/cmsis_gcc.h ****   #pragma GCC diagnostic ignored "-Wattributes"
  98:board/stm32f103cbtx_board/Drivers/CMSIS/Include/cmsis_gcc.h ****   __PACKED_STRUCT T_UINT32_WRITE { uint32_t v; };
  99:board/stm32f103cbtx_board/Drivers/CMSIS/Include/cmsis_gcc.h ****   #pragma GCC diagnostic pop
 100:board/stm32f103cbtx_board/Drivers/CMSIS/Include/cmsis_gcc.h ****   #define __UNALIGNED_UINT32_WRITE(addr, val)    (void)((((struct T_UINT32_WRITE *)(void *)(addr))-
 101:board/stm32f103cbtx_board/Drivers/CMSIS/Include/cmsis_gcc.h **** #endif
 102:board/stm32f103cbtx_board/Drivers/CMSIS/Include/cmsis_gcc.h **** #ifndef   __UNALIGNED_UINT32_READ
 103:board/stm32f103cbtx_board/Drivers/CMSIS/Include/cmsis_gcc.h ****   #pragma GCC diagnostic push
 104:board/stm32f103cbtx_board/Drivers/CMSIS/Include/cmsis_gcc.h ****   #pragma GCC diagnostic ignored "-Wpacked"
 105:board/stm32f103cbtx_board/Drivers/CMSIS/Include/cmsis_gcc.h ****   #pragma GCC diagnostic ignored "-Wattributes"
 106:board/stm32f103cbtx_board/Drivers/CMSIS/Include/cmsis_gcc.h ****   __PACKED_STRUCT T_UINT32_READ { uint32_t v; };
 107:board/stm32f103cbtx_board/Drivers/CMSIS/Include/cmsis_gcc.h ****   #pragma GCC diagnostic pop
 108:board/stm32f103cbtx_board/Drivers/CMSIS/Include/cmsis_gcc.h ****   #define __UNALIGNED_UINT32_READ(addr)          (((const struct T_UINT32_READ *)(const void *)(add
 109:board/stm32f103cbtx_board/Drivers/CMSIS/Include/cmsis_gcc.h **** #endif
 110:board/stm32f103cbtx_board/Drivers/CMSIS/Include/cmsis_gcc.h **** #ifndef   __ALIGNED
 111:board/stm32f103cbtx_board/Drivers/CMSIS/Include/cmsis_gcc.h ****   #define __ALIGNED(x)                           __attribute__((aligned(x)))
 112:board/stm32f103cbtx_board/Drivers/CMSIS/Include/cmsis_gcc.h **** #endif
 113:board/stm32f103cbtx_board/Drivers/CMSIS/Include/cmsis_gcc.h **** #ifndef   __RESTRICT
 114:board/stm32f103cbtx_board/Drivers/CMSIS/Include/cmsis_gcc.h ****   #define __RESTRICT                             __restrict
 115:board/stm32f103cbtx_board/Drivers/CMSIS/Include/cmsis_gcc.h **** #endif
 116:board/stm32f103cbtx_board/Drivers/CMSIS/Include/cmsis_gcc.h **** 
 117:board/stm32f103cbtx_board/Drivers/CMSIS/Include/cmsis_gcc.h **** 
 118:board/stm32f103cbtx_board/Drivers/CMSIS/Include/cmsis_gcc.h **** /* ###########################  Core Function Access  ########################### */
 119:board/stm32f103cbtx_board/Drivers/CMSIS/Include/cmsis_gcc.h **** /** \ingroup  CMSIS_Core_FunctionInterface
 120:board/stm32f103cbtx_board/Drivers/CMSIS/Include/cmsis_gcc.h ****     \defgroup CMSIS_Core_RegAccFunctions CMSIS Core Register Access Functions
 121:board/stm32f103cbtx_board/Drivers/CMSIS/Include/cmsis_gcc.h ****   @{
 122:board/stm32f103cbtx_board/Drivers/CMSIS/Include/cmsis_gcc.h ****  */
 123:board/stm32f103cbtx_board/Drivers/CMSIS/Include/cmsis_gcc.h **** 
 124:board/stm32f103cbtx_board/Drivers/CMSIS/Include/cmsis_gcc.h **** /**
 125:board/stm32f103cbtx_board/Drivers/CMSIS/Include/cmsis_gcc.h ****   \brief   Enable IRQ Interrupts
 126:board/stm32f103cbtx_board/Drivers/CMSIS/Include/cmsis_gcc.h ****   \details Enables IRQ interrupts by clearing the I-bit in the CPSR.
 127:board/stm32f103cbtx_board/Drivers/CMSIS/Include/cmsis_gcc.h ****            Can only be executed in Privileged modes.
 128:board/stm32f103cbtx_board/Drivers/CMSIS/Include/cmsis_gcc.h ****  */
 129:board/stm32f103cbtx_board/Drivers/CMSIS/Include/cmsis_gcc.h **** __STATIC_FORCEINLINE void __enable_irq(void)
 130:board/stm32f103cbtx_board/Drivers/CMSIS/Include/cmsis_gcc.h **** {
 131:board/stm32f103cbtx_board/Drivers/CMSIS/Include/cmsis_gcc.h ****   __ASM volatile ("cpsie i" : : : "memory");
 132:board/stm32f103cbtx_board/Drivers/CMSIS/Include/cmsis_gcc.h **** }
 133:board/stm32f103cbtx_board/Drivers/CMSIS/Include/cmsis_gcc.h **** 
 134:board/stm32f103cbtx_board/Drivers/CMSIS/Include/cmsis_gcc.h **** 
 135:board/stm32f103cbtx_board/Drivers/CMSIS/Include/cmsis_gcc.h **** /**
 136:board/stm32f103cbtx_board/Drivers/CMSIS/Include/cmsis_gcc.h ****   \brief   Disable IRQ Interrupts
 137:board/stm32f103cbtx_board/Drivers/CMSIS/Include/cmsis_gcc.h ****   \details Disables IRQ interrupts by setting the I-bit in the CPSR.
 138:board/stm32f103cbtx_board/Drivers/CMSIS/Include/cmsis_gcc.h ****            Can only be executed in Privileged modes.
 139:board/stm32f103cbtx_board/Drivers/CMSIS/Include/cmsis_gcc.h ****  */
 140:board/stm32f103cbtx_board/Drivers/CMSIS/Include/cmsis_gcc.h **** __STATIC_FORCEINLINE void __disable_irq(void)
  37              		.loc 2 140 27 view .LVU2
  38              	.LBB5:
 141:board/stm32f103cbtx_board/Drivers/CMSIS/Include/cmsis_gcc.h **** {
 142:board/stm32f103cbtx_board/Drivers/CMSIS/Include/cmsis_gcc.h ****   __ASM volatile ("cpsid i" : : : "memory");
  39              		.loc 2 142 3 view .LVU3
  40              		.syntax unified
  41              	@ 142 "board/stm32f103cbtx_board/Drivers/CMSIS/Include/cmsis_gcc.h" 1
  42 0000 72B6     		cpsid i
ARM GAS  C:\Users\vanlo\AppData\Local\Temp\cc0RVx9F.s 			page 5


  43              	@ 0 "" 2
  44              		.thumb
  45              		.syntax unified
  46              	.L2:
  47              	.LBE5:
  48              	.LBE4:
  46:board/stm32f103cbtx_board/Core/Extension/stm32_config.c ****   while (1)
  49              		.loc 1 46 3 discriminator 1 view .LVU4
  47:board/stm32f103cbtx_board/Core/Extension/stm32_config.c ****   {
  48:board/stm32f103cbtx_board/Core/Extension/stm32_config.c ****   }
  50              		.loc 1 48 3 discriminator 1 view .LVU5
  46:board/stm32f103cbtx_board/Core/Extension/stm32_config.c ****   while (1)
  51              		.loc 1 46 9 discriminator 1 view .LVU6
  52 0002 FEE7     		b	.L2
  53              		.cfi_endproc
  54              	.LFE66:
  56              		.section	.text.SystemClock_Config,"ax",%progbits
  57              		.align	1
  58              		.global	SystemClock_Config
  59              		.syntax unified
  60              		.thumb
  61              		.thumb_func
  63              	SystemClock_Config:
  64              	.LFB65:
  10:board/stm32f103cbtx_board/Core/Extension/stm32_config.c ****   RCC_OscInitTypeDef RCC_OscInitStruct = {0};
  65              		.loc 1 10 1 view -0
  66              		.cfi_startproc
  67              		@ args = 0, pretend = 0, frame = 64
  68              		@ frame_needed = 0, uses_anonymous_args = 0
  69 0000 00B5     		push	{lr}
  70              	.LCFI0:
  71              		.cfi_def_cfa_offset 4
  72              		.cfi_offset 14, -4
  73 0002 91B0     		sub	sp, sp, #68
  74              	.LCFI1:
  75              		.cfi_def_cfa_offset 72
  11:board/stm32f103cbtx_board/Core/Extension/stm32_config.c ****   RCC_ClkInitTypeDef RCC_ClkInitStruct = {0};
  76              		.loc 1 11 3 view .LVU8
  11:board/stm32f103cbtx_board/Core/Extension/stm32_config.c ****   RCC_ClkInitTypeDef RCC_ClkInitStruct = {0};
  77              		.loc 1 11 22 is_stmt 0 view .LVU9
  78 0004 2822     		movs	r2, #40
  79 0006 0021     		movs	r1, #0
  80 0008 06A8     		add	r0, sp, #24
  81 000a FFF7FEFF 		bl	memset
  82              	.LVL0:
  12:board/stm32f103cbtx_board/Core/Extension/stm32_config.c **** 
  83              		.loc 1 12 3 is_stmt 1 view .LVU10
  12:board/stm32f103cbtx_board/Core/Extension/stm32_config.c **** 
  84              		.loc 1 12 22 is_stmt 0 view .LVU11
  85 000e 0023     		movs	r3, #0
  86 0010 0193     		str	r3, [sp, #4]
  87 0012 0293     		str	r3, [sp, #8]
  88 0014 0393     		str	r3, [sp, #12]
  89 0016 0493     		str	r3, [sp, #16]
  90 0018 0593     		str	r3, [sp, #20]
  17:board/stm32f103cbtx_board/Core/Extension/stm32_config.c ****   RCC_OscInitStruct.HSIState = RCC_HSI_ON;
  91              		.loc 1 17 3 is_stmt 1 view .LVU12
ARM GAS  C:\Users\vanlo\AppData\Local\Temp\cc0RVx9F.s 			page 6


  17:board/stm32f103cbtx_board/Core/Extension/stm32_config.c ****   RCC_OscInitStruct.HSIState = RCC_HSI_ON;
  92              		.loc 1 17 36 is_stmt 0 view .LVU13
  93 001a 0223     		movs	r3, #2
  94 001c 0693     		str	r3, [sp, #24]
  18:board/stm32f103cbtx_board/Core/Extension/stm32_config.c ****   RCC_OscInitStruct.HSICalibrationValue = RCC_HSICALIBRATION_DEFAULT;
  95              		.loc 1 18 3 is_stmt 1 view .LVU14
  18:board/stm32f103cbtx_board/Core/Extension/stm32_config.c ****   RCC_OscInitStruct.HSICalibrationValue = RCC_HSICALIBRATION_DEFAULT;
  96              		.loc 1 18 30 is_stmt 0 view .LVU15
  97 001e 0123     		movs	r3, #1
  98 0020 0A93     		str	r3, [sp, #40]
  19:board/stm32f103cbtx_board/Core/Extension/stm32_config.c ****   RCC_OscInitStruct.PLL.PLLState = RCC_PLL_NONE;
  99              		.loc 1 19 3 is_stmt 1 view .LVU16
  19:board/stm32f103cbtx_board/Core/Extension/stm32_config.c ****   RCC_OscInitStruct.PLL.PLLState = RCC_PLL_NONE;
 100              		.loc 1 19 41 is_stmt 0 view .LVU17
 101 0022 1023     		movs	r3, #16
 102 0024 0B93     		str	r3, [sp, #44]
  20:board/stm32f103cbtx_board/Core/Extension/stm32_config.c ****   if (HAL_RCC_OscConfig(&RCC_OscInitStruct) != HAL_OK)
 103              		.loc 1 20 3 is_stmt 1 view .LVU18
  21:board/stm32f103cbtx_board/Core/Extension/stm32_config.c ****   {
 104              		.loc 1 21 3 view .LVU19
  21:board/stm32f103cbtx_board/Core/Extension/stm32_config.c ****   {
 105              		.loc 1 21 7 is_stmt 0 view .LVU20
 106 0026 06A8     		add	r0, sp, #24
 107 0028 FFF7FEFF 		bl	HAL_RCC_OscConfig
 108              	.LVL1:
  21:board/stm32f103cbtx_board/Core/Extension/stm32_config.c ****   {
 109              		.loc 1 21 6 view .LVU21
 110 002c 68B9     		cbnz	r0, .L7
  28:board/stm32f103cbtx_board/Core/Extension/stm32_config.c ****                               |RCC_CLOCKTYPE_PCLK1|RCC_CLOCKTYPE_PCLK2;
 111              		.loc 1 28 3 is_stmt 1 view .LVU22
  28:board/stm32f103cbtx_board/Core/Extension/stm32_config.c ****                               |RCC_CLOCKTYPE_PCLK1|RCC_CLOCKTYPE_PCLK2;
 112              		.loc 1 28 31 is_stmt 0 view .LVU23
 113 002e 0F23     		movs	r3, #15
 114 0030 0193     		str	r3, [sp, #4]
  30:board/stm32f103cbtx_board/Core/Extension/stm32_config.c ****   RCC_ClkInitStruct.AHBCLKDivider = RCC_SYSCLK_DIV1;
 115              		.loc 1 30 3 is_stmt 1 view .LVU24
  30:board/stm32f103cbtx_board/Core/Extension/stm32_config.c ****   RCC_ClkInitStruct.AHBCLKDivider = RCC_SYSCLK_DIV1;
 116              		.loc 1 30 34 is_stmt 0 view .LVU25
 117 0032 0021     		movs	r1, #0
 118 0034 0291     		str	r1, [sp, #8]
  31:board/stm32f103cbtx_board/Core/Extension/stm32_config.c ****   RCC_ClkInitStruct.APB1CLKDivider = RCC_HCLK_DIV1;
 119              		.loc 1 31 3 is_stmt 1 view .LVU26
  31:board/stm32f103cbtx_board/Core/Extension/stm32_config.c ****   RCC_ClkInitStruct.APB1CLKDivider = RCC_HCLK_DIV1;
 120              		.loc 1 31 35 is_stmt 0 view .LVU27
 121 0036 0391     		str	r1, [sp, #12]
  32:board/stm32f103cbtx_board/Core/Extension/stm32_config.c ****   RCC_ClkInitStruct.APB2CLKDivider = RCC_HCLK_DIV1;
 122              		.loc 1 32 3 is_stmt 1 view .LVU28
  32:board/stm32f103cbtx_board/Core/Extension/stm32_config.c ****   RCC_ClkInitStruct.APB2CLKDivider = RCC_HCLK_DIV1;
 123              		.loc 1 32 36 is_stmt 0 view .LVU29
 124 0038 0491     		str	r1, [sp, #16]
  33:board/stm32f103cbtx_board/Core/Extension/stm32_config.c **** 
 125              		.loc 1 33 3 is_stmt 1 view .LVU30
  33:board/stm32f103cbtx_board/Core/Extension/stm32_config.c **** 
 126              		.loc 1 33 36 is_stmt 0 view .LVU31
 127 003a 0591     		str	r1, [sp, #20]
  35:board/stm32f103cbtx_board/Core/Extension/stm32_config.c ****   {
 128              		.loc 1 35 3 is_stmt 1 view .LVU32
ARM GAS  C:\Users\vanlo\AppData\Local\Temp\cc0RVx9F.s 			page 7


  35:board/stm32f103cbtx_board/Core/Extension/stm32_config.c ****   {
 129              		.loc 1 35 7 is_stmt 0 view .LVU33
 130 003c 01A8     		add	r0, sp, #4
 131 003e FFF7FEFF 		bl	HAL_RCC_ClockConfig
 132              	.LVL2:
  35:board/stm32f103cbtx_board/Core/Extension/stm32_config.c ****   {
 133              		.loc 1 35 6 view .LVU34
 134 0042 20B9     		cbnz	r0, .L8
  39:board/stm32f103cbtx_board/Core/Extension/stm32_config.c **** 
 135              		.loc 1 39 1 view .LVU35
 136 0044 11B0     		add	sp, sp, #68
 137              	.LCFI2:
 138              		.cfi_remember_state
 139              		.cfi_def_cfa_offset 4
 140              		@ sp needed
 141 0046 5DF804FB 		ldr	pc, [sp], #4
 142              	.L7:
 143              	.LCFI3:
 144              		.cfi_restore_state
  23:board/stm32f103cbtx_board/Core/Extension/stm32_config.c ****   }
 145              		.loc 1 23 5 is_stmt 1 view .LVU36
 146 004a FFF7FEFF 		bl	Error_Handler
 147              	.LVL3:
 148              	.L8:
  37:board/stm32f103cbtx_board/Core/Extension/stm32_config.c ****   }
 149              		.loc 1 37 5 view .LVU37
 150 004e FFF7FEFF 		bl	Error_Handler
 151              	.LVL4:
 152              		.cfi_endproc
 153              	.LFE65:
 155              		.text
 156              	.Letext0:
 157              		.file 3 "c:\\st\\stm32cubeide_1.12.1\\stm32cubeide\\plugins\\com.st.stm32cube.ide.mcu.externaltool
 158              		.file 4 "c:\\st\\stm32cubeide_1.12.1\\stm32cubeide\\plugins\\com.st.stm32cube.ide.mcu.externaltool
 159              		.file 5 "board/stm32f103cbtx_board/Drivers/STM32F1xx_HAL_Driver/Inc/stm32f1xx_hal_def.h"
 160              		.file 6 "board/stm32f103cbtx_board/Drivers/STM32F1xx_HAL_Driver/Inc/stm32f1xx_hal_rcc.h"
 161              		.file 7 "board/stm32f103cbtx_board/Drivers/STM32F1xx_HAL_Driver/Inc/stm32f1xx_hal_rcc_ex.h"
 162              		.file 8 "<built-in>"
ARM GAS  C:\Users\vanlo\AppData\Local\Temp\cc0RVx9F.s 			page 8

